; Function Attrs: mustprogress uwtable
define void @_ZN2cv8SVDecompERKNS_11_InputArrayERKNS_12_OutputArrayES5_S5_i(ptr noundef nonnull align 8 dereferenceable(24) %0, ptr noundef nonnull align 8 dereferenceable(24) %1, ptr noundef nonnull align 8 dereferenceable(24) %2, ptr noundef nonnull align 8 dereferenceable(24) %3, i32 noundef %4) local_unnamed_addr #0 personality ptr @__gxx_personality_v0 {
  %6 = alloca %"class.cv::utils::trace::details::Region", align 8
  %7 = alloca %"class.cv::utils::trace::details::Region", align 8
  call void @llvm.lifetime.start.p0(i64 16, ptr nonnull %7) #17
  call void @_ZN2cv5utils5trace7details6RegionC1ERKNS3_21LocationStaticStorageE(ptr noundef nonnull align 8 dereferenceable(12) %7, ptr noundef nonnull align 8 dereferenceable(32) @_ZZN2cv8SVDecompERKNS_11_InputArrayERKNS_12_OutputArrayES5_S5_iE26__cv_trace_location_fn1539)
  call void @llvm.lifetime.start.p0(i64 16, ptr nonnull %6) #17
  invoke void @_ZN2cv5utils5trace7details6RegionC1ERKNS3_21LocationStaticStorageE(ptr noundef nonnull align 8 dereferenceable(12) %6, ptr noundef nonnull align 8 dereferenceable(32) @_ZZN2cv3SVD7computeERKNS_11_InputArrayERKNS_12_OutputArrayES6_S6_iE26__cv_trace_location_fn1482)
          to label %.noexc unwind label %24

.noexc:                                           ; preds = %5
  invoke fastcc void @_ZN2cvL11_SVDcomputeERKNS_11_InputArrayERKNS_12_OutputArrayES5_S5_i(ptr noundef nonnull align 8 dereferenceable(24) %0, ptr noundef nonnull align 8 dereferenceable(24) %1, ptr noundef nonnull align 8 dereferenceable(24) %2, ptr noundef nonnull align 8 dereferenceable(24) %3, i32 noundef %4)
          to label %8 unwind label %15

8:                                                ; preds = %.noexc
  %9 = getelementptr inbounds nuw i8, ptr %6, i64 8
  %10 = load i32, ptr %9, align 8, !tbaa !3
  %.not.i.i = icmp eq i32 %10, 0
  br i1 %.not.i.i, label %17, label %11

11:                                               ; preds = %8
  invoke void @_ZN2cv5utils5trace7details6Region7destroyEv(ptr noundef nonnull align 8 dereferenceable(12) %6)
          to label %17 unwind label %12

12:                                               ; preds = %11
  %13 = landingpad { ptr, i32 }
          catch ptr null
  %14 = extractvalue { ptr, i32 } %13, 0
  call void @__clang_call_terminate(ptr %14) #18
  unreachable

15:                                               ; preds = %.noexc
  %16 = landingpad { ptr, i32 }
          cleanup
  call void @_ZN2cv5utils5trace7details6RegionD2Ev(ptr noundef nonnull align 8 dereferenceable(12) %6) #17
  call void @llvm.lifetime.end.p0(i64 16, ptr nonnull %6) #17
  br label %.body

17:                                               ; preds = %11, %8
  call void @llvm.lifetime.end.p0(i64 16, ptr nonnull %6) #17
  %18 = getelementptr inbounds nuw i8, ptr %7, i64 8
  %19 = load i32, ptr %18, align 8, !tbaa !3
  %.not.i = icmp eq i32 %19, 0
  br i1 %.not.i, label %_ZN2cv5utils5trace7details6RegionD2Ev.exit, label %20

20:                                               ; preds = %17
  invoke void @_ZN2cv5utils5trace7details6Region7destroyEv(ptr noundef nonnull align 8 dereferenceable(12) %7)
          to label %_ZN2cv5utils5trace7details6RegionD2Ev.exit unwind label %21

21:                                               ; preds = %20
  %22 = landingpad { ptr, i32 }
          catch ptr null
  %23 = extractvalue { ptr, i32 } %22, 0
  call void @__clang_call_terminate(ptr %23) #18
  unreachable

_ZN2cv5utils5trace7details6RegionD2Ev.exit:       ; preds = %17, %20
  call void @llvm.lifetime.end.p0(i64 16, ptr nonnull %7) #17
  ret void

24:                                               ; preds = %5
  %25 = landingpad { ptr, i32 }
          cleanup
  br label %.body

.body:                                            ; preds = %15, %24
  %eh.lpad-body = phi { ptr, i32 } [ %25, %24 ], [ %16, %15 ]
  call void @_ZN2cv5utils5trace7details6RegionD2Ev(ptr noundef nonnull align 8 dereferenceable(12) %7) #17
  call void @llvm.lifetime.end.p0(i64 16, ptr nonnull %7) #17
  resume { ptr, i32 } %eh.lpad-body
}